target datalayout = "e-m:e-p270:32:32-p271:32:32-p272:64:64-i64:64-i128:128-f80:128-n8:16:32:64-S128"
target triple = "x86_64-pc-linux-gnu"

%struct.prov_cipher_ctx_st = type { [16 x i8], [16 x i8], [16 x i8], ptr, %union.anon, i32, i64, i64, i64, i64, i32, i8, i32, ptr, i32, i64, i32, i64, i32, ptr, ptr, ptr }
%union.anon = type { ptr }
%struct.prov_tdes_ctx_st = type { %struct.prov_cipher_ctx_st, %union.anon.0, %union.anon.2 }
%union.anon.0 = type { double, [376 x i8] }
%union.anon.2 = type { ptr }
%struct.DES_ks = type { [16 x %union.anon.1] }
%union.anon.1 = type { [2 x i32] }

; Function Attrs: nounwind uwtable
define internal i32 @ossl_cipher_hw_tdes_cfb8(ptr noundef %0, ptr noundef %1, ptr noundef %2, i64 noundef %3) #0 {
  %5 = alloca ptr, align 8
  %6 = alloca ptr, align 8
  %7 = alloca ptr, align 8
  %8 = alloca i64, align 8
  %9 = alloca ptr, align 8
  store ptr %0, ptr %5, align 8, !tbaa !3
  store ptr %1, ptr %6, align 8, !tbaa !8
  store ptr %2, ptr %7, align 8, !tbaa !8
  store i64 %3, ptr %8, align 8, !tbaa !10
  call void @llvm.lifetime.start.p0(i64 8, ptr %9) #5
  %10 = load ptr, ptr %5, align 8, !tbaa !3
  store ptr %10, ptr %9, align 8, !tbaa !12
  br label %11

11:                                               ; preds = %14, %4
  %12 = load i64, ptr %8, align 8, !tbaa !10
  %13 = icmp uge i64 %12, 1073741824
  br i1 %13, label %14, label %41

14:                                               ; preds = %11
  %15 = load ptr, ptr %7, align 8, !tbaa !8
  %16 = load ptr, ptr %6, align 8, !tbaa !8
  %17 = load ptr, ptr %9, align 8, !tbaa !12
  %18 = getelementptr inbounds nuw %struct.prov_tdes_ctx_st, ptr %17, i32 0, i32 1
  %19 = getelementptr inbounds [3 x %struct.DES_ks], ptr %18, i64 0, i64 0
  %20 = load ptr, ptr %9, align 8, !tbaa !12
  %21 = getelementptr inbounds nuw %struct.prov_tdes_ctx_st, ptr %20, i32 0, i32 1
  %22 = getelementptr inbounds [3 x %struct.DES_ks], ptr %21, i64 0, i64 1
  %23 = load ptr, ptr %9, align 8, !tbaa !12
  %24 = getelementptr inbounds nuw %struct.prov_tdes_ctx_st, ptr %23, i32 0, i32 1
  %25 = getelementptr inbounds [3 x %struct.DES_ks], ptr %24, i64 0, i64 2
  %26 = load ptr, ptr %5, align 8, !tbaa !3
  %27 = getelementptr inbounds nuw %struct.prov_cipher_ctx_st, ptr %26, i32 0, i32 2
  %28 = getelementptr inbounds [16 x i8], ptr %27, i64 0, i64 0
  %29 = load ptr, ptr %5, align 8, !tbaa !3
  %30 = getelementptr inbounds nuw %struct.prov_cipher_ctx_st, ptr %29, i32 0, i32 11
  %31 = load i8, ptr %30, align 4
  %32 = lshr i8 %31, 1
  %33 = and i8 %32, 1
  %34 = zext i8 %33 to i32
  call void @DES_ede3_cfb_encrypt(ptr noundef %15, ptr noundef %16, i32 noundef 8, i64 noundef 1073741824, ptr noundef %19, ptr noundef %22, ptr noundef %25, ptr noundef %28, i32 noundef %34)
  %35 = load i64, ptr %8, align 8, !tbaa !10
  %36 = sub i64 %35, 1073741824
  store i64 %36, ptr %8, align 8, !tbaa !10
  %37 = load ptr, ptr %7, align 8, !tbaa !8
  %38 = getelementptr inbounds nuw i8, ptr %37, i64 1073741824
  store ptr %38, ptr %7, align 8, !tbaa !8
  %39 = load ptr, ptr %6, align 8, !tbaa !8
  %40 = getelementptr inbounds nuw i8, ptr %39, i64 1073741824
  store ptr %40, ptr %6, align 8, !tbaa !8
  br label %11, !llvm.loop !25

41:                                               ; preds = %11
  %42 = load i64, ptr %8, align 8, !tbaa !10
  %43 = icmp ugt i64 %42, 0
  br i1 %43, label %44, label %66

44:                                               ; preds = %41
  %45 = load ptr, ptr %7, align 8, !tbaa !8
  %46 = load ptr, ptr %6, align 8, !tbaa !8
  %47 = load i64, ptr %8, align 8, !tbaa !10
  %48 = load ptr, ptr %9, align 8, !tbaa !12
  %49 = getelementptr inbounds nuw %struct.prov_tdes_ctx_st, ptr %48, i32 0, i32 1
  %50 = getelementptr inbounds [3 x %struct.DES_ks], ptr %49, i64 0, i64 0
  %51 = load ptr, ptr %9, align 8, !tbaa !12
  %52 = getelementptr inbounds nuw %struct.prov_tdes_ctx_st, ptr %51, i32 0, i32 1
  %53 = getelementptr inbounds [3 x %struct.DES_ks], ptr %52, i64 0, i64 1
  %54 = load ptr, ptr %9, align 8, !tbaa !12
  %55 = getelementptr inbounds nuw %struct.prov_tdes_ctx_st, ptr %54, i32 0, i32 1
  %56 = getelementptr inbounds [3 x %struct.DES_ks], ptr %55, i64 0, i64 2
  %57 = load ptr, ptr %5, align 8, !tbaa !3
  %58 = getelementptr inbounds nuw %struct.prov_cipher_ctx_st, ptr %57, i32 0, i32 2
  %59 = getelementptr inbounds [16 x i8], ptr %58, i64 0, i64 0
  %60 = load ptr, ptr %5, align 8, !tbaa !3
  %61 = getelementptr inbounds nuw %struct.prov_cipher_ctx_st, ptr %60, i32 0, i32 11
  %62 = load i8, ptr %61, align 4
  %63 = lshr i8 %62, 1
  %64 = and i8 %63, 1
  %65 = zext i8 %64 to i32
  call void @DES_ede3_cfb_encrypt(ptr noundef %45, ptr noundef %46, i32 noundef 8, i64 noundef %47, ptr noundef %50, ptr noundef %53, ptr noundef %56, ptr noundef %59, i32 noundef %65)
  br label %66

66:                                               ; preds = %44, %41
  call void @llvm.lifetime.end.p0(i64 8, ptr %9) #5
  ret i32 1
}