; Function Attrs: nounwind uwtable
define internal noundef i32 @ossl_cipher_hw_tdes_cfb8(ptr noundef %0, ptr noundef %1, ptr noundef %2, i64 noundef %3) #2 {
  %5 = icmp ugt i64 %3, 1073741823
  br i1 %5, label %.lr.ph, label %._crit_edge

.lr.ph:                                           ; preds = %4
  %6 = getelementptr inbounds nuw i8, ptr %0, i64 192
  %7 = getelementptr inbounds nuw i8, ptr %0, i64 320
  %8 = getelementptr inbounds nuw i8, ptr %0, i64 448
  %9 = getelementptr inbounds nuw i8, ptr %0, i64 32
  %10 = getelementptr inbounds nuw i8, ptr %0, i64 108
  br label %11

11:                                               ; preds = %.lr.ph, %11
  %.024 = phi ptr [ %1, %.lr.ph ], [ %18, %11 ]
  %.02023 = phi i64 [ %3, %.lr.ph ], [ %16, %11 ]
  %.02122 = phi ptr [ %2, %.lr.ph ], [ %17, %11 ]
  %12 = load i8, ptr %10, align 4
  %13 = lshr i8 %12, 1
  %14 = and i8 %13, 1
  %15 = zext nneg i8 %14 to i32
  tail call void @DES_ede3_cfb_encrypt(ptr noundef %.02122, ptr noundef %.024, i32 noundef 8, i64 noundef 1073741824, ptr noundef nonnull %6, ptr noundef nonnull %7, ptr noundef nonnull %8, ptr noundef nonnull %9, i32 noundef %15) #5
  %16 = add i64 %.02023, -1073741824
  %17 = getelementptr inbounds nuw i8, ptr %.02122, i64 1073741824
  %18 = getelementptr inbounds nuw i8, ptr %.024, i64 1073741824
  %19 = icmp ugt i64 %16, 1073741823
  br i1 %19, label %11, label %._crit_edge, !llvm.loop !19

._crit_edge:                                      ; preds = %11, %4
  %.021.lcssa = phi ptr [ %2, %4 ], [ %17, %11 ]
  %.020.lcssa = phi i64 [ %3, %4 ], [ %16, %11 ]
  %.0.lcssa = phi ptr [ %1, %4 ], [ %18, %11 ]
  %.not = icmp eq i64 %.020.lcssa, 0
  br i1 %.not, label %30, label %20

20:                                               ; preds = %._crit_edge
  %21 = getelementptr inbounds nuw i8, ptr %0, i64 192
  %22 = getelementptr inbounds nuw i8, ptr %0, i64 320
  %23 = getelementptr inbounds nuw i8, ptr %0, i64 448
  %24 = getelementptr inbounds nuw i8, ptr %0, i64 32
  %25 = getelementptr inbounds nuw i8, ptr %0, i64 108
  %26 = load i8, ptr %25, align 4
  %27 = lshr i8 %26, 1
  %28 = and i8 %27, 1
  %29 = zext nneg i8 %28 to i32
  tail call void @DES_ede3_cfb_encrypt(ptr noundef %.021.lcssa, ptr noundef %.0.lcssa, i32 noundef 8, i64 noundef %.020.lcssa, ptr noundef nonnull %21, ptr noundef nonnull %22, ptr noundef nonnull %23, ptr noundef nonnull %24, i32 noundef %29) #5
  br label %30

30:                                               ; preds = %20, %._crit_edge
  ret i32 1
}